; Function Attrs: nounwind uwtable
define i32 @glfwGetKeyScancode(i32 noundef %0) local_unnamed_addr #0 {
  %2 = load i32, ptr @_glfw, align 8, !tbaa !170
  %.not = icmp eq i32 %2, 0
  br i1 %.not, label %3, label %4

3:                                                ; preds = %1
  tail call void (i32, ptr, ...) @_glfwInputError(i32 noundef 65537, ptr noundef null) #12
  br label %10

4:                                                ; preds = %1
  %5 = add i32 %0, -349
  %or.cond = icmp ult i32 %5, -317
  br i1 %or.cond, label %6, label %7

6:                                                ; preds = %4
  tail call void (i32, ptr, ...) @_glfwInputError(i32 noundef 65539, ptr noundef nonnull @.str.398, i32 noundef %0) #12
  br label %10

7:                                                ; preds = %4
  %8 = load ptr, ptr getelementptr inbounds nuw (i8, ptr @_glfw, i64 144), align 8, !tbaa !177
  %9 = tail call i32 %8(i32 noundef %0) #12
  br label %10

10:                                               ; preds = %7, %6, %3
  %.0 = phi i32 [ -1, %6 ], [ %9, %7 ], [ 0, %3 ]
  ret i32 %.0
}